target datalayout = "e-m:e-p270:32:32-p271:32:32-p272:64:64-i64:64-i128:128-f80:128-n8:16:32:64-S128"
target triple = "x86_64-pc-linux-gnu"

%struct.TValue = type { %union.Value, i8 }
%union.Value = type { ptr }
%struct.LClosure = type { ptr, i8, i8, i8, ptr, ptr, [1 x ptr] }
%struct.UpVal = type { ptr, i8, i8, %union.anon.4, %union.anon.5 }
%union.anon.4 = type { ptr }
%union.anon.5 = type { %struct.anon.6 }
%struct.anon.6 = type { ptr, ptr }

; Function Attrs: nounwind uwtable
define hidden void @luaF_initupvals(ptr noundef %0, ptr noundef %1) #0 {
  %3 = alloca ptr, align 8
  %4 = alloca ptr, align 8
  %5 = alloca i32, align 4
  %6 = alloca ptr, align 8
  %7 = alloca ptr, align 8
  store ptr %0, ptr %3, align 8, !tbaa !4
  store ptr %1, ptr %4, align 8, !tbaa !17
  call void @llvm.lifetime.start.p0(i64 4, ptr %5) #5
  store i32 0, ptr %5, align 4, !tbaa !9
  br label %8

8:                                                ; preds = %52, %2
  %9 = load i32, ptr %5, align 4, !tbaa !9
  %10 = load ptr, ptr %4, align 8, !tbaa !17
  %11 = getelementptr inbounds nuw %struct.LClosure, ptr %10, i32 0, i32 3
  %12 = load i8, ptr %11, align 2, !tbaa !22
  %13 = zext i8 %12 to i32
  %14 = icmp slt i32 %9, %13
  br i1 %14, label %15, label %55

15:                                               ; preds = %8
  call void @llvm.lifetime.start.p0(i64 8, ptr %6) #5
  %16 = load ptr, ptr %3, align 8, !tbaa !4
  %17 = call ptr @luaC_newobj(ptr noundef %16, i8 noundef zeroext 9, i64 noundef 40)
  store ptr %17, ptr %6, align 8, !tbaa !11
  call void @llvm.lifetime.start.p0(i64 8, ptr %7) #5
  %18 = load ptr, ptr %6, align 8, !tbaa !11
  store ptr %18, ptr %7, align 8, !tbaa !23
  %19 = load ptr, ptr %7, align 8, !tbaa !23
  %20 = getelementptr inbounds nuw %struct.UpVal, ptr %19, i32 0, i32 4
  %21 = load ptr, ptr %7, align 8, !tbaa !23
  %22 = getelementptr inbounds nuw %struct.UpVal, ptr %21, i32 0, i32 3
  store ptr %20, ptr %22, align 8, !tbaa !25
  %23 = load ptr, ptr %7, align 8, !tbaa !23
  %24 = getelementptr inbounds nuw %struct.UpVal, ptr %23, i32 0, i32 3
  %25 = load ptr, ptr %24, align 8, !tbaa !25
  %26 = getelementptr inbounds nuw %struct.TValue, ptr %25, i32 0, i32 1
  store i8 0, ptr %26, align 8, !tbaa !26
  %27 = load ptr, ptr %7, align 8, !tbaa !23
  %28 = load ptr, ptr %4, align 8, !tbaa !17
  %29 = getelementptr inbounds nuw %struct.LClosure, ptr %28, i32 0, i32 6
  %30 = load i32, ptr %5, align 4, !tbaa !9
  %31 = sext i32 %30 to i64
  %32 = getelementptr inbounds [1 x ptr], ptr %29, i64 0, i64 %31
  store ptr %27, ptr %32, align 8, !tbaa !23
  %33 = load ptr, ptr %4, align 8, !tbaa !17
  %34 = getelementptr inbounds nuw %struct.LClosure, ptr %33, i32 0, i32 2
  %35 = load i8, ptr %34, align 1, !tbaa !28
  %36 = zext i8 %35 to i32
  %37 = and i32 %36, 32
  %38 = icmp ne i32 %37, 0
  br i1 %38, label %39, label %50

39:                                               ; preds = %15
  %40 = load ptr, ptr %7, align 8, !tbaa !23
  %41 = getelementptr inbounds nuw %struct.UpVal, ptr %40, i32 0, i32 2
  %42 = load i8, ptr %41, align 1, !tbaa !29
  %43 = zext i8 %42 to i32
  %44 = and i32 %43, 24
  %45 = icmp ne i32 %44, 0
  br i1 %45, label %46, label %50

46:                                               ; preds = %39
  %47 = load ptr, ptr %3, align 8, !tbaa !4
  %48 = load ptr, ptr %4, align 8, !tbaa !17
  %49 = load ptr, ptr %7, align 8, !tbaa !23
  call void @luaC_barrier_(ptr noundef %47, ptr noundef %48, ptr noundef %49)
  br label %51

50:                                               ; preds = %39, %15
  br label %51

51:                                               ; preds = %50, %46
  call void @llvm.lifetime.end.p0(i64 8, ptr %7) #5
  call void @llvm.lifetime.end.p0(i64 8, ptr %6) #5
  br label %52

52:                                               ; preds = %51
  %53 = load i32, ptr %5, align 4, !tbaa !9
  %54 = add nsw i32 %53, 1
  store i32 %54, ptr %5, align 4, !tbaa !9
  br label %8

55:                                               ; preds = %8
  call void @llvm.lifetime.end.p0(i64 4, ptr %5) #5
  ret void
}