; Function Attrs: nounwind uwtable
define hidden void @luaF_initupvals(ptr noundef %0, ptr noundef %1) local_unnamed_addr #0 {
  %3 = getelementptr inbounds nuw i8, ptr %1, i64 10
  %4 = load i8, ptr %3, align 2, !tbaa !13
  %.not17 = icmp eq i8 %4, 0
  br i1 %.not17, label %._crit_edge, label %.lr.ph

.lr.ph:                                           ; preds = %2
  %5 = getelementptr inbounds nuw i8, ptr %1, i64 32
  %6 = getelementptr inbounds nuw i8, ptr %1, i64 9
  br label %7

7:                                                ; preds = %.lr.ph, %20
  %indvars.iv = phi i64 [ 0, %.lr.ph ], [ %indvars.iv.next, %20 ]
  %8 = tail call ptr @luaC_newobj(ptr noundef %0, i8 noundef zeroext 9, i64 noundef 40) #7
  %9 = getelementptr inbounds nuw i8, ptr %8, i64 24
  %10 = getelementptr inbounds nuw i8, ptr %8, i64 16
  store ptr %9, ptr %10, align 8, !tbaa !16
  %11 = getelementptr inbounds nuw i8, ptr %8, i64 32
  store i8 0, ptr %11, align 8, !tbaa !17
  %12 = getelementptr inbounds nuw [1 x ptr], ptr %5, i64 0, i64 %indvars.iv
  store ptr %8, ptr %12, align 8, !tbaa !14
  %13 = load i8, ptr %6, align 1, !tbaa !19
  %14 = and i8 %13, 32
  %.not = icmp eq i8 %14, 0
  br i1 %.not, label %20, label %15

15:                                               ; preds = %7
  %16 = getelementptr inbounds nuw i8, ptr %8, i64 9
  %17 = load i8, ptr %16, align 1, !tbaa !20
  %18 = and i8 %17, 24
  %.not15 = icmp eq i8 %18, 0
  br i1 %.not15, label %20, label %19

19:                                               ; preds = %15
  tail call void @luaC_barrier_(ptr noundef %0, ptr noundef nonnull %1, ptr noundef nonnull %8) #7
  br label %20

20:                                               ; preds = %7, %15, %19
  %indvars.iv.next = add nuw nsw i64 %indvars.iv, 1
  %21 = load i8, ptr %3, align 2, !tbaa !13
  %22 = zext i8 %21 to i64
  %23 = icmp samesign ult i64 %indvars.iv.next, %22
  br i1 %23, label %7, label %._crit_edge

._crit_edge:                                      ; preds = %20, %2
  ret void
}